target datalayout = "e-m:e-p270:32:32-p271:32:32-p272:64:64-i64:64-i128:128-f80:128-n8:16:32:64-S128"
target triple = "x86_64-pc-linux-gnu"

%struct.pmix_list_t = type { %struct.pmix_object_t, %struct.pmix_list_item_t, i64 }
%struct.pmix_object_t = type { %union.pthread_mutex_t, ptr, i32, %struct.pmix_tma }
%union.pthread_mutex_t = type { %struct.__pthread_mutex_s }
%struct.__pthread_mutex_s = type { i32, i32, i32, i32, i32, i16, i16, %struct.__pthread_internal_list }
%struct.__pthread_internal_list = type { ptr, ptr }
%struct.pmix_tma = type { ptr, ptr, ptr, ptr, ptr, ptr, ptr, ptr }
%struct.pmix_list_item_t = type { %struct.pmix_object_t, ptr, ptr, i32 }
%struct.pmix_proc = type { [256 x i8], i32 }
%struct.prte_job_t = type { %struct.pmix_list_item_t, i32, ptr, ptr, [256 x i8], ptr, i32, i32, ptr, ptr, i32, i32, i32, i32, ptr, ptr, ptr, i32, i32, i32, i32, i32, i32, i32, %struct.pmix_proc, i32, i16, %struct.pmix_list_t, %struct.pmix_data_buffer, %struct.pmix_list_t, [256 x i8], i32, ptr, %struct.pmix_cli_result_t }
%struct.pmix_data_buffer = type { ptr, ptr, ptr, i64, i64 }
%struct.pmix_cli_result_t = type { %struct.pmix_object_t, %struct.pmix_list_t, ptr }
%struct.pmix_pointer_array_t = type { %struct.pmix_object_t, i32, i32, i32, i32, i32, ptr, ptr }
%struct.prte_proc_t = type { %struct.pmix_list_item_t, %struct.pmix_proc, i32, i32, i16, i16, i32, i16, i32, i32, i32, i32, ptr, ptr, ptr, ptr, i16, %struct.pmix_list_t }

@.str = private unnamed_addr constant [37 x i8] c"PRTE ERROR: %s in file %s at line %d\00", align 1
@.str.1 = private unnamed_addr constant [14 x i8] c"state_prted.c\00", align 1
@.str.3 = private unnamed_addr constant [37 x i8] c"PMIX ERROR: %s in file %s at line %d\00", align 1
@prte_local_children = external global ptr, align 8

; Function Attrs: nounwind uwtable
define internal i32 @pack_state_for_proc(ptr noundef %0, ptr noundef %1) #0 {
  %3 = alloca i32, align 4
  %4 = alloca ptr, align 8
  %5 = alloca ptr, align 8
  %6 = alloca i32, align 4
  %7 = alloca i32, align 4
  store ptr %0, ptr %4, align 8, !tbaa !50
  store ptr %1, ptr %5, align 8, !tbaa !72
  call void @llvm.lifetime.start.p0(i64 4, ptr %6) #10
  %8 = load ptr, ptr %4, align 8, !tbaa !50
  %9 = load ptr, ptr %5, align 8, !tbaa !72
  %10 = getelementptr inbounds nuw %struct.prte_proc_t, ptr %9, i32 0, i32 1
  %11 = getelementptr inbounds nuw %struct.pmix_proc, ptr %10, i32 0, i32 1
  %12 = call i32 @PMIx_Data_pack(ptr noundef null, ptr noundef %8, ptr noundef %11, i32 noundef 1, i16 noundef zeroext 40)
  store i32 %12, ptr %6, align 4, !tbaa !3
  %13 = load i32, ptr %6, align 4, !tbaa !3
  %14 = icmp ne i32 0, %13
  br i1 %14, label %15, label %26

15:                                               ; preds = %2
  br label %16

16:                                               ; preds = %15
  %17 = load i32, ptr %6, align 4, !tbaa !3
  %18 = icmp ne i32 -2, %17
  br i1 %18, label %19, label %22

19:                                               ; preds = %16
  %20 = load i32, ptr %6, align 4, !tbaa !3
  %21 = call ptr @PMIx_Error_string(i32 noundef %20)
  call void (i32, ptr, ...) @pmix_output(i32 noundef 0, ptr noundef @.str.3, ptr noundef %21, ptr noundef @.str.1, i32 noundef 631)
  br label %22

22:                                               ; preds = %19, %16
  br label %23

23:                                               ; preds = %22
  br label %24

24:                                               ; preds = %23
  %25 = load i32, ptr %6, align 4, !tbaa !3
  store i32 %25, ptr %3, align 4
  store i32 1, ptr %7, align 4
  br label %81

26:                                               ; preds = %2
  %27 = load ptr, ptr %4, align 8, !tbaa !50
  %28 = load ptr, ptr %5, align 8, !tbaa !72
  %29 = getelementptr inbounds nuw %struct.prte_proc_t, ptr %28, i32 0, i32 3
  %30 = call i32 @PMIx_Data_pack(ptr noundef null, ptr noundef %27, ptr noundef %29, i32 noundef 1, i16 noundef zeroext 5)
  store i32 %30, ptr %6, align 4, !tbaa !3
  %31 = load i32, ptr %6, align 4, !tbaa !3
  %32 = icmp ne i32 0, %31
  br i1 %32, label %33, label %44

33:                                               ; preds = %26
  br label %34

34:                                               ; preds = %33
  %35 = load i32, ptr %6, align 4, !tbaa !3
  %36 = icmp ne i32 -2, %35
  br i1 %36, label %37, label %40

37:                                               ; preds = %34
  %38 = load i32, ptr %6, align 4, !tbaa !3
  %39 = call ptr @PMIx_Error_string(i32 noundef %38)
  call void (i32, ptr, ...) @pmix_output(i32 noundef 0, ptr noundef @.str.3, ptr noundef %39, ptr noundef @.str.1, i32 noundef 637)
  br label %40

40:                                               ; preds = %37, %34
  br label %41

41:                                               ; preds = %40
  br label %42

42:                                               ; preds = %41
  %43 = load i32, ptr %6, align 4, !tbaa !3
  store i32 %43, ptr %3, align 4
  store i32 1, ptr %7, align 4
  br label %81

44:                                               ; preds = %26
  %45 = load ptr, ptr %4, align 8, !tbaa !50
  %46 = load ptr, ptr %5, align 8, !tbaa !72
  %47 = getelementptr inbounds nuw %struct.prte_proc_t, ptr %46, i32 0, i32 9
  %48 = call i32 @PMIx_Data_pack(ptr noundef null, ptr noundef %45, ptr noundef %47, i32 noundef 1, i16 noundef zeroext 14)
  store i32 %48, ptr %6, align 4, !tbaa !3
  %49 = load i32, ptr %6, align 4, !tbaa !3
  %50 = icmp ne i32 0, %49
  br i1 %50, label %51, label %62

51:                                               ; preds = %44
  br label %52

52:                                               ; preds = %51
  %53 = load i32, ptr %6, align 4, !tbaa !3
  %54 = icmp ne i32 -2, %53
  br i1 %54, label %55, label %58

55:                                               ; preds = %52
  %56 = load i32, ptr %6, align 4, !tbaa !3
  %57 = call ptr @PMIx_Error_string(i32 noundef %56)
  call void (i32, ptr, ...) @pmix_output(i32 noundef 0, ptr noundef @.str.3, ptr noundef %57, ptr noundef @.str.1, i32 noundef 643)
  br label %58

58:                                               ; preds = %55, %52
  br label %59

59:                                               ; preds = %58
  br label %60

60:                                               ; preds = %59
  %61 = load i32, ptr %6, align 4, !tbaa !3
  store i32 %61, ptr %3, align 4
  store i32 1, ptr %7, align 4
  br label %81

62:                                               ; preds = %44
  %63 = load ptr, ptr %4, align 8, !tbaa !50
  %64 = load ptr, ptr %5, align 8, !tbaa !72
  %65 = getelementptr inbounds nuw %struct.prte_proc_t, ptr %64, i32 0, i32 10
  %66 = call i32 @PMIx_Data_pack(ptr noundef null, ptr noundef %63, ptr noundef %65, i32 noundef 1, i16 noundef zeroext 9)
  store i32 %66, ptr %6, align 4, !tbaa !3
  %67 = load i32, ptr %6, align 4, !tbaa !3
  %68 = icmp ne i32 0, %67
  br i1 %68, label %69, label %80

69:                                               ; preds = %62
  br label %70

70:                                               ; preds = %69
  %71 = load i32, ptr %6, align 4, !tbaa !3
  %72 = icmp ne i32 -2, %71
  br i1 %72, label %73, label %76

73:                                               ; preds = %70
  %74 = load i32, ptr %6, align 4, !tbaa !3
  %75 = call ptr @PMIx_Error_string(i32 noundef %74)
  call void (i32, ptr, ...) @pmix_output(i32 noundef 0, ptr noundef @.str.3, ptr noundef %75, ptr noundef @.str.1, i32 noundef 649)
  br label %76

76:                                               ; preds = %73, %70
  br label %77

77:                                               ; preds = %76
  br label %78

78:                                               ; preds = %77
  %79 = load i32, ptr %6, align 4, !tbaa !3
  store i32 %79, ptr %3, align 4
  store i32 1, ptr %7, align 4
  br label %81

80:                                               ; preds = %62
  store i32 0, ptr %3, align 4
  store i32 1, ptr %7, align 4
  br label %81

81:                                               ; preds = %80, %78, %60, %42, %24
  call void @llvm.lifetime.end.p0(i64 4, ptr %6) #10
  %82 = load i32, ptr %3, align 4
  ret i32 %82
}

; Function Attrs: inlinehint nounwind uwtable
define internal ptr @pmix_pointer_array_get_item(ptr noundef %0, i32 noundef %1) #3 {
  %3 = alloca ptr, align 8
  %4 = alloca ptr, align 8
  %5 = alloca i32, align 4
  %6 = alloca ptr, align 8
  %7 = alloca i32, align 4
  store ptr %0, ptr %4, align 8, !tbaa !67
  store i32 %1, ptr %5, align 4, !tbaa !3
  call void @llvm.lifetime.start.p0(i64 8, ptr %6) #10
  %8 = load i32, ptr %5, align 4, !tbaa !3
  %9 = icmp sgt i32 0, %8
  br i1 %9, label %16, label %10

10:                                               ; preds = %2
  %11 = load ptr, ptr %4, align 8, !tbaa !67
  %12 = getelementptr inbounds nuw %struct.pmix_pointer_array_t, ptr %11, i32 0, i32 3
  %13 = load i32, ptr %12, align 8, !tbaa !69
  %14 = load i32, ptr %5, align 4, !tbaa !3
  %15 = icmp sle i32 %13, %14
  br label %16

16:                                               ; preds = %10, %2
  %17 = phi i1 [ true, %2 ], [ %15, %10 ]
  %18 = xor i1 %17, true
  %19 = xor i1 %18, true
  %20 = zext i1 %19 to i32
  %21 = sext i32 %20 to i64
  %22 = call i64 @llvm.expect.i64(i64 %21, i64 0)
  %23 = icmp ne i64 %22, 0
  br i1 %23, label %24, label %25

24:                                               ; preds = %16
  store ptr null, ptr %3, align 8
  store i32 1, ptr %7, align 4
  br label %34

25:                                               ; preds = %16
  %26 = load ptr, ptr %4, align 8, !tbaa !67
  %27 = getelementptr inbounds nuw %struct.pmix_pointer_array_t, ptr %26, i32 0, i32 7
  %28 = load ptr, ptr %27, align 8, !tbaa !84
  %29 = load i32, ptr %5, align 4, !tbaa !3
  %30 = sext i32 %29 to i64
  %31 = getelementptr inbounds ptr, ptr %28, i64 %30
  %32 = load ptr, ptr %31, align 8, !tbaa !19
  store ptr %32, ptr %6, align 8, !tbaa !19
  %33 = load ptr, ptr %6, align 8, !tbaa !19
  store ptr %33, ptr %3, align 8
  store i32 1, ptr %7, align 4
  br label %34

34:                                               ; preds = %25, %24
  call void @llvm.lifetime.end.p0(i64 8, ptr %6) #10
  %35 = load ptr, ptr %3, align 8
  ret ptr %35
}

; Function Attrs: nounwind uwtable
define internal i32 @pack_state_update(ptr noundef %0, ptr noundef %1) #0 {
  %3 = alloca i32, align 4
  %4 = alloca ptr, align 8
  %5 = alloca ptr, align 8
  %6 = alloca i32, align 4
  %7 = alloca i32, align 4
  %8 = alloca ptr, align 8
  %9 = alloca i32, align 4
  %10 = alloca i32, align 4
  store ptr %0, ptr %4, align 8, !tbaa !50
  store ptr %1, ptr %5, align 8, !tbaa !19
  call void @llvm.lifetime.start.p0(i64 4, ptr %6) #10
  call void @llvm.lifetime.start.p0(i64 4, ptr %7) #10
  call void @llvm.lifetime.start.p0(i64 8, ptr %8) #10
  call void @llvm.lifetime.start.p0(i64 4, ptr %9) #10
  store i32 -4, ptr %9, align 4, !tbaa !3
  %11 = load ptr, ptr %4, align 8, !tbaa !50
  %12 = load ptr, ptr %5, align 8, !tbaa !19
  %13 = getelementptr inbounds nuw %struct.prte_job_t, ptr %12, i32 0, i32 4
  %14 = call i32 @PMIx_Data_pack(ptr noundef null, ptr noundef %11, ptr noundef %13, i32 noundef 1, i16 noundef zeroext 60)
  store i32 %14, ptr %7, align 4, !tbaa !3
  %15 = load i32, ptr %7, align 4, !tbaa !3
  %16 = icmp ne i32 0, %15
  br i1 %16, label %17, label %28

17:                                               ; preds = %2
  br label %18

18:                                               ; preds = %17
  %19 = load i32, ptr %7, align 4, !tbaa !3
  %20 = icmp ne i32 -2, %19
  br i1 %20, label %21, label %24

21:                                               ; preds = %18
  %22 = load i32, ptr %7, align 4, !tbaa !3
  %23 = call ptr @PMIx_Error_string(i32 noundef %22)
  call void (i32, ptr, ...) @pmix_output(i32 noundef 0, ptr noundef @.str.3, ptr noundef %23, ptr noundef @.str.1, i32 noundef 665)
  br label %24

24:                                               ; preds = %21, %18
  br label %25

25:                                               ; preds = %24
  br label %26

26:                                               ; preds = %25
  %27 = load i32, ptr %7, align 4, !tbaa !3
  store i32 %27, ptr %3, align 4
  store i32 1, ptr %10, align 4
  br label %101

28:                                               ; preds = %2
  store i32 0, ptr %6, align 4, !tbaa !3
  br label %29

29:                                               ; preds = %81, %28
  %30 = load i32, ptr %6, align 4, !tbaa !3
  %31 = load ptr, ptr @prte_local_children, align 8, !tbaa !67
  %32 = getelementptr inbounds nuw %struct.pmix_pointer_array_t, ptr %31, i32 0, i32 3
  %33 = load i32, ptr %32, align 8, !tbaa !69
  %34 = icmp slt i32 %30, %33
  br i1 %34, label %35, label %84

35:                                               ; preds = %29
  %36 = load ptr, ptr @prte_local_children, align 8, !tbaa !67
  %37 = load i32, ptr %6, align 4, !tbaa !3
  %38 = call ptr @pmix_pointer_array_get_item(ptr noundef %36, i32 noundef %37)
  store ptr %38, ptr %8, align 8, !tbaa !72
  %39 = icmp eq ptr null, %38
  br i1 %39, label %40, label %41

40:                                               ; preds = %35
  br label %81

41:                                               ; preds = %35
  %42 = load ptr, ptr %8, align 8, !tbaa !72
  %43 = getelementptr inbounds nuw %struct.prte_proc_t, ptr %42, i32 0, i32 1
  %44 = getelementptr inbounds nuw %struct.pmix_proc, ptr %43, i32 0, i32 0
  %45 = getelementptr inbounds [256 x i8], ptr %44, i64 0, i64 0
  %46 = load ptr, ptr %5, align 8, !tbaa !19
  %47 = getelementptr inbounds nuw %struct.prte_job_t, ptr %46, i32 0, i32 4
  %48 = getelementptr inbounds [256 x i8], ptr %47, i64 0, i64 0
  %49 = call zeroext i1 @PMIx_Check_nspace(ptr noundef %45, ptr noundef %48)
  br i1 %49, label %50, label %80

50:                                               ; preds = %41
  %51 = load ptr, ptr %8, align 8, !tbaa !72
  %52 = getelementptr inbounds nuw %struct.prte_proc_t, ptr %51, i32 0, i32 16
  %53 = load i16, ptr %52, align 8, !tbaa !110
  %54 = zext i16 %53 to i32
  %55 = and i32 %54, 16384
  %56 = icmp ne i32 %55, 0
  br i1 %56, label %80, label %57

57:                                               ; preds = %50
  %58 = load ptr, ptr %4, align 8, !tbaa !50
  %59 = load ptr, ptr %8, align 8, !tbaa !72
  %60 = call i32 @pack_state_for_proc(ptr noundef %58, ptr noundef %59)
  store i32 %60, ptr %7, align 4, !tbaa !3
  %61 = icmp ne i32 0, %60
  br i1 %61, label %62, label %73

62:                                               ; preds = %57
  br label %63

63:                                               ; preds = %62
  %64 = load i32, ptr %7, align 4, !tbaa !3
  %65 = icmp ne i32 -43, %64
  br i1 %65, label %66, label %69

66:                                               ; preds = %63
  %67 = load i32, ptr %7, align 4, !tbaa !3
  %68 = call ptr @prte_strerror(i32 noundef %67)
  call void (i32, ptr, ...) @pmix_output(i32 noundef 0, ptr noundef @.str, ptr noundef %68, ptr noundef @.str.1, i32 noundef 677)
  br label %69

69:                                               ; preds = %66, %63
  br label %70

70:                                               ; preds = %69
  br label %71

71:                                               ; preds = %70
  %72 = load i32, ptr %7, align 4, !tbaa !3
  store i32 %72, ptr %3, align 4
  store i32 1, ptr %10, align 4
  br label %101

73:                                               ; preds = %57
  %74 = load ptr, ptr %8, align 8, !tbaa !72
  %75 = getelementptr inbounds nuw %struct.prte_proc_t, ptr %74, i32 0, i32 16
  %76 = load i16, ptr %75, align 8, !tbaa !110
  %77 = zext i16 %76 to i32
  %78 = or i32 %77, 16384
  %79 = trunc i32 %78 to i16
  store i16 %79, ptr %75, align 8, !tbaa !110
  br label %80

80:                                               ; preds = %73, %50, %41
  br label %81

81:                                               ; preds = %80, %40
  %82 = load i32, ptr %6, align 4, !tbaa !3
  %83 = add nsw i32 %82, 1
  store i32 %83, ptr %6, align 4, !tbaa !3
  br label %29, !llvm.loop !153

84:                                               ; preds = %29
  %85 = load ptr, ptr %4, align 8, !tbaa !50
  %86 = call i32 @PMIx_Data_pack(ptr noundef null, ptr noundef %85, ptr noundef %9, i32 noundef 1, i16 noundef zeroext 40)
  store i32 %86, ptr %7, align 4, !tbaa !3
  %87 = load i32, ptr %7, align 4, !tbaa !3
  %88 = icmp ne i32 0, %87
  br i1 %88, label %89, label %100

89:                                               ; preds = %84
  br label %90

90:                                               ; preds = %89
  %91 = load i32, ptr %7, align 4, !tbaa !3
  %92 = icmp ne i32 -2, %91
  br i1 %92, label %93, label %96

93:                                               ; preds = %90
  %94 = load i32, ptr %7, align 4, !tbaa !3
  %95 = call ptr @PMIx_Error_string(i32 noundef %94)
  call void (i32, ptr, ...) @pmix_output(i32 noundef 0, ptr noundef @.str.3, ptr noundef %95, ptr noundef @.str.1, i32 noundef 686)
  br label %96

96:                                               ; preds = %93, %90
  br label %97

97:                                               ; preds = %96
  br label %98

98:                                               ; preds = %97
  %99 = load i32, ptr %7, align 4, !tbaa !3
  store i32 %99, ptr %3, align 4
  store i32 1, ptr %10, align 4
  br label %101

100:                                              ; preds = %84
  store i32 0, ptr %3, align 4
  store i32 1, ptr %10, align 4
  br label %101

101:                                              ; preds = %100, %98, %71, %26
  call void @llvm.lifetime.end.p0(i64 4, ptr %9) #10
  call void @llvm.lifetime.end.p0(i64 8, ptr %8) #10
  call void @llvm.lifetime.end.p0(i64 4, ptr %7) #10
  call void @llvm.lifetime.end.p0(i64 4, ptr %6) #10
  %102 = load i32, ptr %3, align 4
  ret i32 %102
}