; Function Attrs: nounwind uwtable
define internal fastcc noundef i32 @pack_state_update(ptr noundef %0, ptr noundef nonnull %1) unnamed_addr #0 {
  %3 = alloca i32, align 4
  call void @llvm.lifetime.start.p0(i64 4, ptr nonnull %3) #11
  store i32 -4, ptr %3, align 4, !tbaa !3
  %4 = getelementptr inbounds nuw i8, ptr %1, i64 168
  %5 = tail call i32 @PMIx_Data_pack(ptr noundef null, ptr noundef %0, ptr noundef nonnull %4, i32 noundef 1, i16 noundef zeroext 60) #11
  switch i32 %5, label %10 [
    i32 0, label %.preheader
    i32 -2, label %.loopexit
  ]

.preheader:                                       ; preds = %2
  %6 = load ptr, ptr @prte_local_children, align 8, !tbaa !57
  %7 = getelementptr inbounds nuw i8, ptr %6, i64 128
  %8 = load i32, ptr %7, align 8, !tbaa !59
  %9 = icmp sgt i32 %8, 0
  br i1 %9, label %pmix_pointer_array_get_item.exit, label %._crit_edge

10:                                               ; preds = %2
  %11 = tail call ptr @PMIx_Error_string(i32 noundef %5) #11
  tail call void (i32, ptr, ...) @pmix_output(i32 noundef 0, ptr noundef nonnull @.str.3, ptr noundef %11, ptr noundef nonnull @.str.1, i32 noundef 665) #11
  br label %.loopexit

pmix_pointer_array_get_item.exit:                 ; preds = %.preheader, %41
  %indvars.iv = phi i64 [ %indvars.iv.next, %41 ], [ 0, %.preheader ]
  %12 = phi ptr [ %42, %41 ], [ %6, %.preheader ]
  %13 = getelementptr inbounds nuw i8, ptr %12, i64 152
  %14 = load ptr, ptr %13, align 8, !tbaa !62
  %15 = getelementptr inbounds nuw ptr, ptr %14, i64 %indvars.iv
  %16 = load ptr, ptr %15, align 8, !tbaa !18
  %17 = icmp eq ptr %16, null
  br i1 %17, label %41, label %18

18:                                               ; preds = %pmix_pointer_array_get_item.exit
  %19 = getelementptr inbounds nuw i8, ptr %16, i64 144
  %20 = tail call zeroext i1 @PMIx_Check_nspace(ptr noundef nonnull %19, ptr noundef nonnull %4) #11
  br i1 %20, label %21, label %41

21:                                               ; preds = %18
  %22 = getelementptr inbounds nuw i8, ptr %16, i64 472
  %23 = load i16, ptr %22, align 8, !tbaa !93
  %24 = and i16 %23, 16384
  %.not30 = icmp eq i16 %24, 0
  br i1 %.not30, label %25, label %41

25:                                               ; preds = %21
  %26 = getelementptr inbounds nuw i8, ptr %16, i64 400
  %27 = tail call i32 @PMIx_Data_pack(ptr noundef null, ptr noundef %0, ptr noundef nonnull %26, i32 noundef 1, i16 noundef zeroext 40) #11
  switch i32 %27, label %pack_state_for_proc.exit [
    i32 0, label %28
    i32 -2, label %pack_state_for_proc.exit.thread
  ]

28:                                               ; preds = %25
  %29 = getelementptr inbounds nuw i8, ptr %16, i64 408
  %30 = tail call i32 @PMIx_Data_pack(ptr noundef null, ptr noundef %0, ptr noundef nonnull %29, i32 noundef 1, i16 noundef zeroext 5) #11
  switch i32 %30, label %pack_state_for_proc.exit [
    i32 0, label %31
    i32 -2, label %pack_state_for_proc.exit.thread
  ]

31:                                               ; preds = %28
  %32 = getelementptr inbounds nuw i8, ptr %16, i64 428
  %33 = tail call i32 @PMIx_Data_pack(ptr noundef null, ptr noundef %0, ptr noundef nonnull %32, i32 noundef 1, i16 noundef zeroext 14) #11
  switch i32 %33, label %pack_state_for_proc.exit [
    i32 0, label %34
    i32 -2, label %pack_state_for_proc.exit.thread
  ]

34:                                               ; preds = %31
  %35 = getelementptr inbounds nuw i8, ptr %16, i64 432
  %36 = tail call i32 @PMIx_Data_pack(ptr noundef null, ptr noundef %0, ptr noundef nonnull %35, i32 noundef 1, i16 noundef zeroext 9) #11
  switch i32 %36, label %pack_state_for_proc.exit [
    i32 0, label %pack_state_for_proc.exit.thread37
    i32 -2, label %pack_state_for_proc.exit.thread
  ]

pack_state_for_proc.exit:                         ; preds = %34, %31, %28, %25
  %.sink42 = phi i32 [ %27, %25 ], [ %30, %28 ], [ %33, %31 ], [ %36, %34 ]
  %.sink41 = phi i32 [ 631, %25 ], [ 637, %28 ], [ 643, %31 ], [ 649, %34 ]
  %37 = tail call ptr @PMIx_Error_string(i32 noundef %.sink42) #11
  tail call void (i32, ptr, ...) @pmix_output(i32 noundef 0, ptr noundef nonnull @.str.3, ptr noundef %37, ptr noundef nonnull @.str.1, i32 noundef %.sink41) #11
  switch i32 %.sink42, label %pack_state_for_proc.exit.thread [
    i32 0, label %pack_state_for_proc.exit.thread37
    i32 -43, label %.loopexit
  ]

pack_state_for_proc.exit.thread:                  ; preds = %34, %31, %28, %25, %pack_state_for_proc.exit
  %.0.i3436 = phi i32 [ %.sink42, %pack_state_for_proc.exit ], [ %27, %25 ], [ %30, %28 ], [ %33, %31 ], [ %36, %34 ]
  %38 = tail call ptr @prte_strerror(i32 noundef %.0.i3436) #11
  tail call void (i32, ptr, ...) @pmix_output(i32 noundef 0, ptr noundef nonnull @.str, ptr noundef %38, ptr noundef nonnull @.str.1, i32 noundef 677) #11
  br label %.loopexit

pack_state_for_proc.exit.thread37:                ; preds = %34, %pack_state_for_proc.exit
  %39 = load i16, ptr %22, align 8, !tbaa !93
  %40 = or i16 %39, 16384
  store i16 %40, ptr %22, align 8, !tbaa !93
  br label %41

41:                                               ; preds = %18, %21, %pack_state_for_proc.exit.thread37, %pmix_pointer_array_get_item.exit
  %indvars.iv.next = add nuw nsw i64 %indvars.iv, 1
  %42 = load ptr, ptr @prte_local_children, align 8, !tbaa !57
  %43 = getelementptr inbounds nuw i8, ptr %42, i64 128
  %44 = load i32, ptr %43, align 8, !tbaa !59
  %45 = sext i32 %44 to i64
  %46 = icmp slt i64 %indvars.iv.next, %45
  br i1 %46, label %pmix_pointer_array_get_item.exit, label %._crit_edge, !llvm.loop !133

._crit_edge:                                      ; preds = %41, %.preheader
  %47 = call i32 @PMIx_Data_pack(ptr noundef null, ptr noundef %0, ptr noundef nonnull %3, i32 noundef 1, i16 noundef zeroext 40) #11
  switch i32 %47, label %48 [
    i32 0, label %.loopexit
    i32 -2, label %.loopexit
  ]

48:                                               ; preds = %._crit_edge
  %49 = call ptr @PMIx_Error_string(i32 noundef %47) #11
  call void (i32, ptr, ...) @pmix_output(i32 noundef 0, ptr noundef nonnull @.str.3, ptr noundef %49, ptr noundef nonnull @.str.1, i32 noundef 686) #11
  br label %.loopexit

.loopexit:                                        ; preds = %pack_state_for_proc.exit, %._crit_edge, %48, %._crit_edge, %pack_state_for_proc.exit.thread, %10, %2
  %.0 = phi i32 [ %5, %2 ], [ %5, %10 ], [ %.0.i3436, %pack_state_for_proc.exit.thread ], [ %47, %._crit_edge ], [ %47, %48 ], [ %47, %._crit_edge ], [ %.sink42, %pack_state_for_proc.exit ]
  call void @llvm.lifetime.end.p0(i64 4, ptr nonnull %3) #11
  ret i32 %.0
}